target datalayout = "e-m:e-p270:32:32-p271:32:32-p272:64:64-i64:64-i128:128-f80:128-n8:16:32:64-S128"
target triple = "x86_64-pc-linux-gnu"

%struct.Node = type { i32 }
%struct.JsonFuncExpr = type { i32, i32, ptr, ptr, ptr, ptr, ptr, ptr, ptr, i32, i32, i32 }

@.str.326 = private unnamed_addr constant [1 x i8] zeroinitializer, align 1

; Function Attrs: nounwind uwtable
define internal ptr @nullable_string(ptr noundef %0, i32 noundef %1) #0 {
  %3 = alloca ptr, align 8
  %4 = alloca ptr, align 8
  %5 = alloca i32, align 4
  store ptr %0, ptr %4, align 8
  store i32 %1, ptr %5, align 4
  %6 = load i32, ptr %5, align 4
  %7 = icmp eq i32 %6, 0
  br i1 %7, label %8, label %9

8:                                                ; preds = %2
  store ptr null, ptr %3, align 8
  br label %30

9:                                                ; preds = %2
  %10 = load i32, ptr %5, align 4
  %11 = icmp eq i32 %10, 2
  br i1 %11, label %12, label %26

12:                                               ; preds = %9
  %13 = load ptr, ptr %4, align 8
  %14 = getelementptr inbounds i8, ptr %13, i64 0
  %15 = load i8, ptr %14, align 1
  %16 = sext i8 %15 to i32
  %17 = icmp eq i32 %16, 34
  br i1 %17, label %18, label %26

18:                                               ; preds = %12
  %19 = load ptr, ptr %4, align 8
  %20 = getelementptr inbounds i8, ptr %19, i64 1
  %21 = load i8, ptr %20, align 1
  %22 = sext i8 %21 to i32
  %23 = icmp eq i32 %22, 34
  br i1 %23, label %24, label %26

24:                                               ; preds = %18
  %25 = call ptr @pstrdup(ptr noundef @.str.326)
  store ptr %25, ptr %3, align 8
  br label %30

26:                                               ; preds = %18, %12, %9
  %27 = load ptr, ptr %4, align 8
  %28 = load i32, ptr %5, align 4
  %29 = call ptr @debackslash(ptr noundef %27, i32 noundef %28)
  store ptr %29, ptr %3, align 8
  br label %30

30:                                               ; preds = %26, %24, %8
  %31 = load ptr, ptr %3, align 8
  ret ptr %31
}

; Function Attrs: inlinehint nounwind willreturn memory(read) uwtable
define available_externally i32 @atoi(ptr noundef nonnull %0) #6 {
  %2 = alloca ptr, align 8
  store ptr %0, ptr %2, align 8
  %3 = load ptr, ptr %2, align 8
  %4 = call i64 @strtol(ptr noundef %3, ptr noundef null, i32 noundef 10) #9
  %5 = trunc i64 %4 to i32
  ret i32 %5
}

; Function Attrs: inlinehint nounwind uwtable
define internal ptr @newNode(i64 noundef %0, i32 noundef %1) #7 {
  %3 = alloca i64, align 8
  %4 = alloca i32, align 4
  %5 = alloca ptr, align 8
  store i64 %0, ptr %3, align 8
  store i32 %1, ptr %4, align 4
  call void @llvm.lifetime.start.p0(i64 8, ptr %5) #9
  %6 = load i64, ptr %3, align 8
  %7 = call ptr @palloc0(i64 noundef %6)
  store ptr %7, ptr %5, align 8
  %8 = load i32, ptr %4, align 4
  %9 = load ptr, ptr %5, align 8
  %10 = getelementptr inbounds nuw %struct.Node, ptr %9, i32 0, i32 0
  store i32 %8, ptr %10, align 4
  %11 = load ptr, ptr %5, align 8
  call void @llvm.lifetime.end.p0(i64 8, ptr %5) #9
  ret ptr %11
}

; Function Attrs: nounwind uwtable
define internal ptr @_readJsonFuncExpr() #0 {
  %1 = alloca ptr, align 8
  %2 = alloca ptr, align 8
  %3 = alloca i32, align 4
  call void @llvm.lifetime.start.p0(i64 8, ptr %1) #9
  %4 = call ptr @newNode(i64 noundef 80, i32 noundef 122)
  store ptr %4, ptr %1, align 8
  call void @llvm.lifetime.start.p0(i64 8, ptr %2) #9
  call void @llvm.lifetime.start.p0(i64 4, ptr %3) #9
  %5 = call ptr @pg_strtok(ptr noundef %3)
  store ptr %5, ptr %2, align 8
  %6 = call ptr @pg_strtok(ptr noundef %3)
  store ptr %6, ptr %2, align 8
  %7 = load ptr, ptr %2, align 8
  %8 = call i32 @atoi(ptr noundef %7) #11
  %9 = load ptr, ptr %1, align 8
  %10 = getelementptr inbounds nuw %struct.JsonFuncExpr, ptr %9, i32 0, i32 1
  store i32 %8, ptr %10, align 4
  %11 = call ptr @pg_strtok(ptr noundef %3)
  store ptr %11, ptr %2, align 8
  %12 = call ptr @pg_strtok(ptr noundef %3)
  store ptr %12, ptr %2, align 8
  %13 = load ptr, ptr %2, align 8
  %14 = load i32, ptr %3, align 4
  %15 = call ptr @nullable_string(ptr noundef %13, i32 noundef %14)
  %16 = load ptr, ptr %1, align 8
  %17 = getelementptr inbounds nuw %struct.JsonFuncExpr, ptr %16, i32 0, i32 2
  store ptr %15, ptr %17, align 8
  %18 = call ptr @pg_strtok(ptr noundef %3)
  store ptr %18, ptr %2, align 8
  %19 = call ptr @nodeRead(ptr noundef null, i32 noundef 0)
  %20 = load ptr, ptr %1, align 8
  %21 = getelementptr inbounds nuw %struct.JsonFuncExpr, ptr %20, i32 0, i32 3
  store ptr %19, ptr %21, align 8
  %22 = call ptr @pg_strtok(ptr noundef %3)
  store ptr %22, ptr %2, align 8
  %23 = call ptr @nodeRead(ptr noundef null, i32 noundef 0)
  %24 = load ptr, ptr %1, align 8
  %25 = getelementptr inbounds nuw %struct.JsonFuncExpr, ptr %24, i32 0, i32 4
  store ptr %23, ptr %25, align 8
  %26 = call ptr @pg_strtok(ptr noundef %3)
  store ptr %26, ptr %2, align 8
  %27 = call ptr @nodeRead(ptr noundef null, i32 noundef 0)
  %28 = load ptr, ptr %1, align 8
  %29 = getelementptr inbounds nuw %struct.JsonFuncExpr, ptr %28, i32 0, i32 5
  store ptr %27, ptr %29, align 8
  %30 = call ptr @pg_strtok(ptr noundef %3)
  store ptr %30, ptr %2, align 8
  %31 = call ptr @nodeRead(ptr noundef null, i32 noundef 0)
  %32 = load ptr, ptr %1, align 8
  %33 = getelementptr inbounds nuw %struct.JsonFuncExpr, ptr %32, i32 0, i32 6
  store ptr %31, ptr %33, align 8
  %34 = call ptr @pg_strtok(ptr noundef %3)
  store ptr %34, ptr %2, align 8
  %35 = call ptr @nodeRead(ptr noundef null, i32 noundef 0)
  %36 = load ptr, ptr %1, align 8
  %37 = getelementptr inbounds nuw %struct.JsonFuncExpr, ptr %36, i32 0, i32 7
  store ptr %35, ptr %37, align 8
  %38 = call ptr @pg_strtok(ptr noundef %3)
  store ptr %38, ptr %2, align 8
  %39 = call ptr @nodeRead(ptr noundef null, i32 noundef 0)
  %40 = load ptr, ptr %1, align 8
  %41 = getelementptr inbounds nuw %struct.JsonFuncExpr, ptr %40, i32 0, i32 8
  store ptr %39, ptr %41, align 8
  %42 = call ptr @pg_strtok(ptr noundef %3)
  store ptr %42, ptr %2, align 8
  %43 = call ptr @pg_strtok(ptr noundef %3)
  store ptr %43, ptr %2, align 8
  %44 = load ptr, ptr %2, align 8
  %45 = call i32 @atoi(ptr noundef %44) #11
  %46 = load ptr, ptr %1, align 8
  %47 = getelementptr inbounds nuw %struct.JsonFuncExpr, ptr %46, i32 0, i32 9
  store i32 %45, ptr %47, align 8
  %48 = call ptr @pg_strtok(ptr noundef %3)
  store ptr %48, ptr %2, align 8
  %49 = call ptr @pg_strtok(ptr noundef %3)
  store ptr %49, ptr %2, align 8
  %50 = load ptr, ptr %2, align 8
  %51 = call i32 @atoi(ptr noundef %50) #11
  %52 = load ptr, ptr %1, align 8
  %53 = getelementptr inbounds nuw %struct.JsonFuncExpr, ptr %52, i32 0, i32 10
  store i32 %51, ptr %53, align 4
  %54 = call ptr @pg_strtok(ptr noundef %3)
  store ptr %54, ptr %2, align 8
  %55 = call ptr @pg_strtok(ptr noundef %3)
  store ptr %55, ptr %2, align 8
  %56 = load ptr, ptr %1, align 8
  %57 = getelementptr inbounds nuw %struct.JsonFuncExpr, ptr %56, i32 0, i32 11
  store i32 -1, ptr %57, align 8
  %58 = load ptr, ptr %1, align 8
  call void @llvm.lifetime.end.p0(i64 4, ptr %3) #9
  call void @llvm.lifetime.end.p0(i64 8, ptr %2) #9
  call void @llvm.lifetime.end.p0(i64 8, ptr %1) #9
  ret ptr %58
}